target datalayout = "e-m:e-p270:32:32-p271:32:32-p272:64:64-i64:64-i128:128-f80:128-n8:16:32:64-S128"
target triple = "x86_64-pc-linux-gnu"

%class.Node = type <{ ptr, ptr, ptr, i32, i32, i32, i32, i32, i32, i32, [4 x i8] }>

; Function Attrs: mustprogress nounwind uwtable
define linkonce_odr hidden noundef ptr @_ZNK4Node2inEj(ptr noundef nonnull align 8 dereferenceable(52) %0, i32 noundef %1) #1 comdat align 2 {
  %3 = alloca ptr, align 8
  %4 = alloca i32, align 4
  store ptr %0, ptr %3, align 8
  store i32 %1, ptr %4, align 4
  %5 = load ptr, ptr %3, align 8
  %6 = getelementptr inbounds %class.Node, ptr %5, i32 0, i32 1
  %7 = load ptr, ptr %6, align 8
  %8 = load i32, ptr %4, align 4
  %9 = zext i32 %8 to i64
  %10 = getelementptr inbounds ptr, ptr %7, i64 %9
  %11 = load ptr, ptr %10, align 8
  ret ptr %11
}

; Function Attrs: mustprogress nounwind uwtable
define linkonce_odr hidden noundef i32 @_ZNK4Node3reqEv(ptr noundef nonnull align 8 dereferenceable(52) %0) #1 comdat align 2 {
  %2 = alloca ptr, align 8
  store ptr %0, ptr %2, align 8
  %3 = load ptr, ptr %2, align 8
  %4 = getelementptr inbounds %class.Node, ptr %3, i32 0, i32 3
  %5 = load i32, ptr %4, align 8
  ret i32 %5
}

; Function Attrs: mustprogress nounwind uwtable
define internal noundef ptr @_ZL19common_saved_ex_oopP13SafePointNodeb(ptr noundef %0, i1 noundef zeroext %1) #1 {
  %3 = alloca ptr, align 8
  %4 = alloca i8, align 1
  %5 = alloca ptr, align 8
  store ptr %0, ptr %3, align 8
  %6 = zext i1 %1 to i8
  store i8 %6, ptr %4, align 1
  %7 = load ptr, ptr %3, align 8
  %8 = load ptr, ptr %3, align 8
  %9 = call noundef i32 @_ZNK4Node3reqEv(ptr noundef nonnull align 8 dereferenceable(52) %8)
  %10 = sub i32 %9, 1
  %11 = call noundef ptr @_ZNK4Node2inEj(ptr noundef nonnull align 8 dereferenceable(52) %7, i32 noundef %10)
  store ptr %11, ptr %5, align 8
  %12 = load i8, ptr %4, align 1
  %13 = trunc i8 %12 to i1
  br i1 %13, label %14, label %19

14:                                               ; preds = %2
  %15 = load ptr, ptr %3, align 8
  %16 = load ptr, ptr %3, align 8
  %17 = call noundef i32 @_ZNK4Node3reqEv(ptr noundef nonnull align 8 dereferenceable(52) %16)
  %18 = sub i32 %17, 1
  call void @_ZN4Node7del_reqEj(ptr noundef nonnull align 8 dereferenceable(52) %15, i32 noundef %18)
  br label %19

19:                                               ; preds = %14, %2
  %20 = load ptr, ptr %5, align 8
  ret ptr %20
}

; Function Attrs: mustprogress nounwind uwtable
define hidden noundef ptr @_ZN8GraphKit18clear_saved_ex_oopEP13SafePointNode(ptr noundef %0) #1 align 2 {
  %2 = alloca ptr, align 8
  store ptr %0, ptr %2, align 8
  %3 = load ptr, ptr %2, align 8
  %4 = call noundef ptr @_ZL19common_saved_ex_oopP13SafePointNodeb(ptr noundef %3, i1 noundef zeroext true)
  ret ptr %4
}