; Function Attrs: mustprogress nounwind uwtable
define hidden noundef ptr @_ZN8GraphKit18clear_saved_ex_oopEP13SafePointNode(ptr noundef nonnull %0) local_unnamed_addr #0 align 2 {
  %2 = getelementptr inbounds i8, ptr %0, i64 24
  %3 = load i32, ptr %2, align 8
  %4 = add i32 %3, -1
  %5 = getelementptr inbounds i8, ptr %0, i64 8
  %6 = load ptr, ptr %5, align 8
  %7 = zext i32 %4 to i64
  %8 = getelementptr inbounds ptr, ptr %6, i64 %7
  %9 = load ptr, ptr %8, align 8
  tail call void @_ZN4Node7del_reqEj(ptr noundef nonnull align 8 dereferenceable(52) %0, i32 noundef %4) #13
  ret ptr %9
}